target datalayout = "e-m:e-p270:32:32-p271:32:32-p272:64:64-i64:64-i128:128-f80:128-n8:16:32:64-S128"
target triple = "x86_64-pc-linux-gnu"

%"class.casadi::MX" = type { %"class.casadi::SharedObject" }
%"class.casadi::SharedObject" = type { %"class.casadi::GenericShared" }
%"class.casadi::GenericShared" = type { ptr }
%"class.std::vector.68" = type { %"struct.std::_Vector_base.69" }
%"struct.std::_Vector_base.69" = type { %"struct.std::_Vector_base<casadi::MX, std::allocator<casadi::MX>>::_Vector_impl" }
%"struct.std::_Vector_base<casadi::MX, std::allocator<casadi::MX>>::_Vector_impl" = type { %"struct.std::_Vector_base<casadi::MX, std::allocator<casadi::MX>>::_Vector_impl_data" }
%"struct.std::_Vector_base<casadi::MX, std::allocator<casadi::MX>>::_Vector_impl_data" = type { ptr, ptr, ptr }
%"class.std::allocator.70" = type { i8 }
%"struct.std::_Vector_base.191" = type { %"struct.std::_Vector_base<casadi::DaeBuilderInternal::DaeBuilderInternalOut, std::allocator<casadi::DaeBuilderInternal::DaeBuilderInternalOut>>::_Vector_impl" }
%"struct.std::_Vector_base<casadi::DaeBuilderInternal::DaeBuilderInternalOut, std::allocator<casadi::DaeBuilderInternal::DaeBuilderInternalOut>>::_Vector_impl" = type { %"struct.std::_Vector_base<casadi::DaeBuilderInternal::DaeBuilderInternalOut, std::allocator<casadi::DaeBuilderInternal::DaeBuilderInternalOut>>::_Vector_impl_data" }
%"struct.std::_Vector_base<casadi::DaeBuilderInternal::DaeBuilderInternalOut, std::allocator<casadi::DaeBuilderInternal::DaeBuilderInternalOut>>::_Vector_impl_data" = type { ptr, ptr, ptr }

; Function Attrs: inlinehint mustprogress uwtable
define linkonce_odr hidden noundef nonnull align 8 dereferenceable(8) ptr @_ZN6casadi12SharedObjectaSERKS0_(ptr noundef nonnull align 8 dereferenceable(8) %0, ptr noundef nonnull align 8 dereferenceable(8) %1) #7 comdat align 2 {
  %3 = alloca ptr, align 8
  %4 = alloca ptr, align 8
  store ptr %0, ptr %3, align 8, !tbaa !623
  store ptr %1, ptr %4, align 8, !tbaa !623
  %5 = load ptr, ptr %3, align 8
  %6 = load ptr, ptr %4, align 8, !tbaa !623
  %7 = call noundef nonnull align 8 dereferenceable(8) ptr @_ZN6casadi13GenericSharedINS_12SharedObjectENS_20SharedObjectInternalEEaSERKS3_(ptr noundef nonnull align 8 dereferenceable(8) %5, ptr noundef nonnull align 8 dereferenceable(8) %6)
  ret ptr %5
}

; Function Attrs: mustprogress nounwind uwtable
define linkonce_odr hidden void @_ZNSt15__new_allocatorIN6casadi2MXEEC2Ev(ptr noundef nonnull align 1 dereferenceable(1) %0) unnamed_addr #5 comdat align 2 {
  %2 = alloca ptr, align 8
  store ptr %0, ptr %2, align 8, !tbaa !318
  ret void
}

; Function Attrs: inlinehint mustprogress uwtable
define linkonce_odr hidden noundef nonnull align 8 dereferenceable(8) ptr @_ZN6casadi2MXaSERKS0_(ptr noundef nonnull align 8 dereferenceable(8) %0, ptr noundef nonnull align 8 dereferenceable(8) %1) #7 comdat align 2 {
  %3 = alloca ptr, align 8
  %4 = alloca ptr, align 8
  store ptr %0, ptr %3, align 8, !tbaa !108
  store ptr %1, ptr %4, align 8, !tbaa !108
  %5 = load ptr, ptr %3, align 8
  %6 = load ptr, ptr %4, align 8, !tbaa !108
  %7 = call noundef nonnull align 8 dereferenceable(8) ptr @_ZN6casadi12SharedObjectaSERKS0_(ptr noundef nonnull align 8 dereferenceable(8) %5, ptr noundef nonnull align 8 dereferenceable(8) %6)
  ret ptr %5
}

; Function Attrs: mustprogress nounwind uwtable
define linkonce_odr hidden noundef nonnull align 8 dereferenceable(8) ptr @_ZNSt6vectorIN6casadi2MXESaIS1_EEixEm(ptr noundef nonnull align 8 dereferenceable(24) %0, i64 noundef %1) #5 comdat align 2 {
  %3 = alloca ptr, align 8
  %4 = alloca i64, align 8
  store ptr %0, ptr %3, align 8, !tbaa !151
  store i64 %1, ptr %4, align 8, !tbaa !31
  %5 = load ptr, ptr %3, align 8
  %6 = getelementptr inbounds nuw %"struct.std::_Vector_base.69", ptr %5, i32 0, i32 0
  %7 = getelementptr inbounds nuw %"struct.std::_Vector_base<casadi::MX, std::allocator<casadi::MX>>::_Vector_impl_data", ptr %6, i32 0, i32 0
  %8 = load ptr, ptr %7, align 8, !tbaa !153
  %9 = load i64, ptr %4, align 8, !tbaa !31
  %10 = getelementptr inbounds nuw %"class.casadi::MX", ptr %8, i64 %9
  ret ptr %10
}

; Function Attrs: inlinehint mustprogress uwtable
define linkonce_odr hidden void @_ZN6casadi7vertcatERKSt6vectorINS_2MXESaIS1_EE(ptr dead_on_unwind noalias writable sret(%"class.casadi::MX") align 8 %0, ptr noundef nonnull align 8 dereferenceable(24) %1) #7 comdat {
  %3 = alloca ptr, align 8
  %4 = alloca ptr, align 8
  store ptr %0, ptr %3, align 8
  store ptr %1, ptr %4, align 8, !tbaa !151
  %5 = load ptr, ptr %4, align 8, !tbaa !151
  call void @_ZN6casadi2MX7vertcatERKSt6vectorIS0_SaIS0_EE(ptr dead_on_unwind writable sret(%"class.casadi::MX") align 8 %0, ptr noundef nonnull align 8 dereferenceable(24) %5)
  ret void
}

; Function Attrs: mustprogress nounwind uwtable
define linkonce_odr hidden noundef nonnull align 4 dereferenceable(4) ptr @_ZNKSt6vectorIN6casadi18DaeBuilderInternal21DaeBuilderInternalOutESaIS2_EEixEm(ptr noundef nonnull align 8 dereferenceable(24) %0, i64 noundef %1) #5 comdat align 2 {
  %3 = alloca ptr, align 8
  %4 = alloca i64, align 8
  store ptr %0, ptr %3, align 8, !tbaa !414
  store i64 %1, ptr %4, align 8, !tbaa !31
  %5 = load ptr, ptr %3, align 8
  %6 = getelementptr inbounds nuw %"struct.std::_Vector_base.191", ptr %5, i32 0, i32 0
  %7 = getelementptr inbounds nuw %"struct.std::_Vector_base<casadi::DaeBuilderInternal::DaeBuilderInternalOut, std::allocator<casadi::DaeBuilderInternal::DaeBuilderInternalOut>>::_Vector_impl_data", ptr %6, i32 0, i32 0
  %8 = load ptr, ptr %7, align 8, !tbaa !419
  %9 = load i64, ptr %4, align 8, !tbaa !31
  %10 = getelementptr inbounds nuw i32, ptr %8, i64 %9
  ret ptr %10
}

; Function Attrs: mustprogress nounwind uwtable
define linkonce_odr hidden void @_ZNSt15__new_allocatorIN6casadi2MXEED2Ev(ptr noundef nonnull align 1 dereferenceable(1) %0) unnamed_addr #5 comdat align 2 {
  %2 = alloca ptr, align 8
  store ptr %0, ptr %2, align 8, !tbaa !318
  ret void
}

; Function Attrs: mustprogress nounwind uwtable
define linkonce_odr hidden void @_ZNSaIN6casadi2MXEEC2Ev(ptr noundef nonnull align 1 dereferenceable(1) %0) unnamed_addr #5 comdat align 2 {
  %2 = alloca ptr, align 8
  store ptr %0, ptr %2, align 8, !tbaa !316
  %3 = load ptr, ptr %2, align 8
  call void @_ZNSt15__new_allocatorIN6casadi2MXEEC2Ev(ptr noundef nonnull align 1 dereferenceable(1) %3) #3
  ret void
}

; Function Attrs: mustprogress nounwind uwtable
define linkonce_odr hidden noundef i64 @_ZNKSt6vectorIN6casadi18DaeBuilderInternal21DaeBuilderInternalOutESaIS2_EE4sizeEv(ptr noundef nonnull align 8 dereferenceable(24) %0) #5 comdat align 2 {
  %2 = alloca ptr, align 8
  store ptr %0, ptr %2, align 8, !tbaa !414
  %3 = load ptr, ptr %2, align 8
  %4 = getelementptr inbounds nuw %"struct.std::_Vector_base.191", ptr %3, i32 0, i32 0
  %5 = getelementptr inbounds nuw %"struct.std::_Vector_base<casadi::DaeBuilderInternal::DaeBuilderInternalOut, std::allocator<casadi::DaeBuilderInternal::DaeBuilderInternalOut>>::_Vector_impl_data", ptr %4, i32 0, i32 1
  %6 = load ptr, ptr %5, align 8, !tbaa !417
  %7 = getelementptr inbounds nuw %"struct.std::_Vector_base.191", ptr %3, i32 0, i32 0
  %8 = getelementptr inbounds nuw %"struct.std::_Vector_base<casadi::DaeBuilderInternal::DaeBuilderInternalOut, std::allocator<casadi::DaeBuilderInternal::DaeBuilderInternalOut>>::_Vector_impl_data", ptr %7, i32 0, i32 0
  %9 = load ptr, ptr %8, align 8, !tbaa !419
  %10 = ptrtoint ptr %6 to i64
  %11 = ptrtoint ptr %9 to i64
  %12 = sub i64 %10, %11
  %13 = sdiv exact i64 %12, 4
  ret i64 %13
}

; Function Attrs: mustprogress uwtable
define void @_ZNK6casadi18DaeBuilderInternal6outputERKSt6vectorINS0_21DaeBuilderInternalOutESaIS2_EE(ptr dead_on_unwind noalias writable sret(%"class.std::vector.68") align 8 %0, ptr noundef nonnull align 8 dereferenceable(1017) %1, ptr noundef nonnull align 8 dereferenceable(24) %2) #6 align 2 personality ptr @__gxx_personality_v0 {
  %4 = alloca ptr, align 8
  %5 = alloca ptr, align 8
  %6 = alloca ptr, align 8
  %7 = alloca i1, align 1
  %8 = alloca %"class.std::allocator.70", align 1
  %9 = alloca ptr, align 8
  %10 = alloca i32, align 4
  %11 = alloca i64, align 8
  %12 = alloca %"class.casadi::MX", align 8
  %13 = alloca %"class.std::vector.68", align 8
  store ptr %0, ptr %4, align 8
  store ptr %1, ptr %5, align 8, !tbaa !112
  store ptr %2, ptr %6, align 8, !tbaa !414
  %14 = load ptr, ptr %5, align 8
  store i1 false, ptr %7, align 1
  %15 = load ptr, ptr %6, align 8, !tbaa !414
  %16 = call noundef i64 @_ZNKSt6vectorIN6casadi18DaeBuilderInternal21DaeBuilderInternalOutESaIS2_EE4sizeEv(ptr noundef nonnull align 8 dereferenceable(24) %15) #3
  call void @llvm.lifetime.start.p0(i64 1, ptr %8) #3
  call void @_ZNSaIN6casadi2MXEEC2Ev(ptr noundef nonnull align 1 dereferenceable(1) %8) #3
  invoke void @_ZNSt6vectorIN6casadi2MXESaIS1_EEC2EmRKS2_(ptr noundef nonnull align 8 dereferenceable(24) %0, i64 noundef %16, ptr noundef nonnull align 1 dereferenceable(1) %8)
          to label %17 unwind label %24

17:                                               ; preds = %3
  call void @_ZNSt15__new_allocatorIN6casadi2MXEED2Ev(ptr noundef nonnull align 1 dereferenceable(1) %8) #3
  call void @llvm.lifetime.end.p0(i64 1, ptr %8) #3
  call void @llvm.lifetime.start.p0(i64 8, ptr %11) #3
  store i64 0, ptr %11, align 8, !tbaa !85
  br label %18

18:                                               ; preds = %39, %17
  %19 = load i64, ptr %11, align 8, !tbaa !85
  %20 = load ptr, ptr %6, align 8, !tbaa !414
  %21 = call noundef i64 @_ZNKSt6vectorIN6casadi18DaeBuilderInternal21DaeBuilderInternalOutESaIS2_EE4sizeEv(ptr noundef nonnull align 8 dereferenceable(24) %20) #3
  %22 = icmp ult i64 %19, %21
  br i1 %22, label %28, label %23

23:                                               ; preds = %18
  call void @llvm.lifetime.end.p0(i64 8, ptr %11) #3
  br label %56

24:                                               ; preds = %3
  %25 = landingpad { ptr, i32 }
          cleanup
  %26 = extractvalue { ptr, i32 } %25, 0
  store ptr %26, ptr %9, align 8
  %27 = extractvalue { ptr, i32 } %25, 1
  store i32 %27, ptr %10, align 4
  call void @_ZNSt15__new_allocatorIN6casadi2MXEED2Ev(ptr noundef nonnull align 1 dereferenceable(1) %8) #3
  call void @llvm.lifetime.end.p0(i64 1, ptr %8) #3
  br label %60

28:                                               ; preds = %18
  call void @llvm.lifetime.start.p0(i64 8, ptr %12) #3
  call void @llvm.lifetime.start.p0(i64 24, ptr %13) #3
  %29 = load ptr, ptr %6, align 8, !tbaa !414
  %30 = load i64, ptr %11, align 8, !tbaa !85
  %31 = call noundef nonnull align 4 dereferenceable(4) ptr @_ZNKSt6vectorIN6casadi18DaeBuilderInternal21DaeBuilderInternalOutESaIS2_EEixEm(ptr noundef nonnull align 8 dereferenceable(24) %29, i64 noundef %30) #3
  %32 = load i32, ptr %31, align 4, !tbaa !369
  invoke void @_ZNK6casadi18DaeBuilderInternal6outputENS0_21DaeBuilderInternalOutE(ptr dead_on_unwind writable sret(%"class.std::vector.68") align 8 %13, ptr noundef nonnull align 8 dereferenceable(1017) %14, i32 noundef %32)
          to label %33 unwind label %42

33:                                               ; preds = %28
  invoke void @_ZN6casadi7vertcatERKSt6vectorINS_2MXESaIS1_EE(ptr dead_on_unwind writable sret(%"class.casadi::MX") align 8 %12, ptr noundef nonnull align 8 dereferenceable(24) %13)
          to label %34 unwind label %46

34:                                               ; preds = %33
  %35 = load i64, ptr %11, align 8, !tbaa !85
  %36 = call noundef nonnull align 8 dereferenceable(8) ptr @_ZNSt6vectorIN6casadi2MXESaIS1_EEixEm(ptr noundef nonnull align 8 dereferenceable(24) %0, i64 noundef %35) #3
  %37 = invoke noundef nonnull align 8 dereferenceable(8) ptr @_ZN6casadi2MXaSERKS0_(ptr noundef nonnull align 8 dereferenceable(8) %36, ptr noundef nonnull align 8 dereferenceable(8) %12)
          to label %38 unwind label %50

38:                                               ; preds = %34
  call void @_ZN6casadi2MXD1Ev(ptr noundef nonnull align 8 dereferenceable(8) %12) #3
  call void @_ZNSt6vectorIN6casadi2MXESaIS1_EED2Ev(ptr noundef nonnull align 8 dereferenceable(24) %13) #3
  call void @llvm.lifetime.end.p0(i64 24, ptr %13) #3
  call void @llvm.lifetime.end.p0(i64 8, ptr %12) #3
  br label %39

39:                                               ; preds = %38
  %40 = load i64, ptr %11, align 8, !tbaa !85
  %41 = add nsw i64 %40, 1
  store i64 %41, ptr %11, align 8, !tbaa !85
  br label %18, !llvm.loop !416

42:                                               ; preds = %28
  %43 = landingpad { ptr, i32 }
          cleanup
  %44 = extractvalue { ptr, i32 } %43, 0
  store ptr %44, ptr %9, align 8
  %45 = extractvalue { ptr, i32 } %43, 1
  store i32 %45, ptr %10, align 4
  br label %55

46:                                               ; preds = %33
  %47 = landingpad { ptr, i32 }
          cleanup
  %48 = extractvalue { ptr, i32 } %47, 0
  store ptr %48, ptr %9, align 8
  %49 = extractvalue { ptr, i32 } %47, 1
  store i32 %49, ptr %10, align 4
  br label %54

50:                                               ; preds = %34
  %51 = landingpad { ptr, i32 }
          cleanup
  %52 = extractvalue { ptr, i32 } %51, 0
  store ptr %52, ptr %9, align 8
  %53 = extractvalue { ptr, i32 } %51, 1
  store i32 %53, ptr %10, align 4
  call void @_ZN6casadi2MXD1Ev(ptr noundef nonnull align 8 dereferenceable(8) %12) #3
  br label %54

54:                                               ; preds = %50, %46
  call void @_ZNSt6vectorIN6casadi2MXESaIS1_EED2Ev(ptr noundef nonnull align 8 dereferenceable(24) %13) #3
  br label %55

55:                                               ; preds = %54, %42
  call void @llvm.lifetime.end.p0(i64 24, ptr %13) #3
  call void @llvm.lifetime.end.p0(i64 8, ptr %12) #3
  call void @llvm.lifetime.end.p0(i64 8, ptr %11) #3
  call void @_ZNSt6vectorIN6casadi2MXESaIS1_EED2Ev(ptr noundef nonnull align 8 dereferenceable(24) %0) #3
  br label %60

56:                                               ; preds = %23
  store i1 true, ptr %7, align 1
  %57 = load i1, ptr %7, align 1
  br i1 %57, label %59, label %58

58:                                               ; preds = %56
  call void @_ZNSt6vectorIN6casadi2MXESaIS1_EED2Ev(ptr noundef nonnull align 8 dereferenceable(24) %0) #3
  br label %59

59:                                               ; preds = %58, %56
  ret void

60:                                               ; preds = %55, %24
  %61 = load ptr, ptr %9, align 8
  %62 = load i32, ptr %10, align 4
  %63 = insertvalue { ptr, i32 } poison, ptr %61, 0
  %64 = insertvalue { ptr, i32 } %63, i32 %62, 1
  resume { ptr, i32 } %64
}