; Function Attrs: mustprogress uwtable
define void @_ZNK6casadi18DaeBuilderInternal6outputERKSt6vectorINS0_21DaeBuilderInternalOutESaIS2_EE(ptr dead_on_unwind noalias nonnull writable sret(%"class.std::vector.68") align 8 %0, ptr noundef nonnull readonly align 8 captures(none) dereferenceable(1017) %1, ptr noundef nonnull readonly align 8 captures(none) dereferenceable(24) %2) local_unnamed_addr #4 align 2 personality ptr @__gxx_personality_v0 {
  %4 = alloca %"class.std::allocator.70", align 1
  %5 = alloca %"class.casadi::MX", align 8
  %6 = alloca %"class.std::vector.68", align 8
  %7 = getelementptr inbounds nuw i8, ptr %2, i64 8
  %8 = load ptr, ptr %7, align 8, !tbaa !792
  %9 = load ptr, ptr %2, align 8, !tbaa !794
  %10 = ptrtoint ptr %8 to i64
  %11 = ptrtoint ptr %9 to i64
  %12 = sub i64 %10, %11
  %13 = ashr exact i64 %12, 2
  call void @llvm.lifetime.start.p0(i64 1, ptr nonnull %4) #30
  call void @_ZNSt6vectorIN6casadi2MXESaIS1_EEC2EmRKS2_(ptr noundef nonnull align 8 dereferenceable(24) %0, i64 noundef %13, ptr noundef nonnull align 1 dereferenceable(1) %4)
  call void @llvm.lifetime.end.p0(i64 1, ptr nonnull %4) #30
  %14 = load ptr, ptr %7, align 8, !tbaa !792
  %15 = load ptr, ptr %2, align 8, !tbaa !794
  %.not = icmp eq ptr %14, %15
  br i1 %.not, label %._crit_edge, label %.lr.ph

.lr.ph:                                           ; preds = %3
  %16 = getelementptr inbounds nuw i8, ptr %6, i64 8
  %17 = getelementptr inbounds nuw i8, ptr %6, i64 16
  br label %18

18:                                               ; preds = %.lr.ph, %_ZNSt6vectorIN6casadi2MXESaIS1_EED2Ev.exit
  %19 = phi ptr [ %15, %.lr.ph ], [ %37, %_ZNSt6vectorIN6casadi2MXESaIS1_EED2Ev.exit ]
  %.017 = phi i64 [ 0, %.lr.ph ], [ %35, %_ZNSt6vectorIN6casadi2MXESaIS1_EED2Ev.exit ]
  call void @llvm.lifetime.start.p0(i64 8, ptr nonnull %5) #30
  call void @llvm.lifetime.start.p0(i64 24, ptr nonnull %6) #30
  %20 = getelementptr inbounds nuw i32, ptr %19, i64 %.017
  %21 = load i32, ptr %20, align 4, !tbaa !795
  invoke void @_ZNK6casadi18DaeBuilderInternal6outputENS0_21DaeBuilderInternalOutE(ptr dead_on_unwind nonnull writable sret(%"class.std::vector.68") align 8 %6, ptr noundef nonnull align 8 dereferenceable(1017) %1, i32 noundef %21)
          to label %22 unwind label %43

22:                                               ; preds = %18
  invoke void @_ZN6casadi2MX7vertcatERKSt6vectorIS0_SaIS0_EE(ptr dead_on_unwind nonnull writable sret(%"class.casadi::MX") align 8 %5, ptr noundef nonnull align 8 dereferenceable(24) %6)
          to label %_ZN6casadi7vertcatERKSt6vectorINS_2MXESaIS1_EE.exit unwind label %45

_ZN6casadi7vertcatERKSt6vectorINS_2MXESaIS1_EE.exit: ; preds = %22
  %23 = load ptr, ptr %0, align 8, !tbaa !196
  %24 = getelementptr inbounds nuw %"class.casadi::MX", ptr %23, i64 %.017
  %25 = invoke noundef nonnull align 8 dereferenceable(8) ptr @_ZN6casadi13GenericSharedINS_12SharedObjectENS_20SharedObjectInternalEEaSERKS3_(ptr noundef nonnull align 8 dereferenceable(8) %24, ptr noundef nonnull align 8 dereferenceable(8) %5)
          to label %_ZN6casadi2MXaSERKS0_.exit unwind label %47

_ZN6casadi2MXaSERKS0_.exit:                       ; preds = %_ZN6casadi7vertcatERKSt6vectorINS_2MXESaIS1_EE.exit
  call void @_ZN6casadi2MXD1Ev(ptr noundef nonnull align 8 dereferenceable(8) %5) #30
  %26 = load ptr, ptr %6, align 8, !tbaa !196
  %27 = load ptr, ptr %16, align 8, !tbaa !199
  %.not4.i.i.i.i = icmp eq ptr %26, %27
  br i1 %.not4.i.i.i.i, label %_ZSt8_DestroyIPN6casadi2MXES1_EvT_S3_RSaIT0_E.exit.i, label %.lr.ph.i.i.i.i

.lr.ph.i.i.i.i:                                   ; preds = %_ZN6casadi2MXaSERKS0_.exit, %.lr.ph.i.i.i.i
  %.05.i.i.i.i = phi ptr [ %28, %.lr.ph.i.i.i.i ], [ %26, %_ZN6casadi2MXaSERKS0_.exit ]
  call void @_ZN6casadi2MXD1Ev(ptr noundef nonnull align 8 dereferenceable(8) %.05.i.i.i.i) #30
  %28 = getelementptr inbounds nuw i8, ptr %.05.i.i.i.i, i64 8
  %.not.i.i.i.i = icmp eq ptr %28, %27
  br i1 %.not.i.i.i.i, label %_ZSt8_DestroyIPN6casadi2MXES1_EvT_S3_RSaIT0_E.exitthread-pre-split.i, label %.lr.ph.i.i.i.i, !llvm.loop !200

_ZSt8_DestroyIPN6casadi2MXES1_EvT_S3_RSaIT0_E.exitthread-pre-split.i: ; preds = %.lr.ph.i.i.i.i
  %.pr.i = load ptr, ptr %6, align 8, !tbaa !196
  br label %_ZSt8_DestroyIPN6casadi2MXES1_EvT_S3_RSaIT0_E.exit.i

_ZSt8_DestroyIPN6casadi2MXES1_EvT_S3_RSaIT0_E.exit.i: ; preds = %_ZSt8_DestroyIPN6casadi2MXES1_EvT_S3_RSaIT0_E.exitthread-pre-split.i, %_ZN6casadi2MXaSERKS0_.exit
  %29 = phi ptr [ %.pr.i, %_ZSt8_DestroyIPN6casadi2MXES1_EvT_S3_RSaIT0_E.exitthread-pre-split.i ], [ %26, %_ZN6casadi2MXaSERKS0_.exit ]
  %.not.i.i.i = icmp eq ptr %29, null
  br i1 %.not.i.i.i, label %_ZNSt6vectorIN6casadi2MXESaIS1_EED2Ev.exit, label %30

30:                                               ; preds = %_ZSt8_DestroyIPN6casadi2MXES1_EvT_S3_RSaIT0_E.exit.i
  %31 = load ptr, ptr %17, align 8, !tbaa !201
  %32 = ptrtoint ptr %31 to i64
  %33 = ptrtoint ptr %29 to i64
  %34 = sub i64 %32, %33
  call void @_ZdlPvm(ptr noundef nonnull %29, i64 noundef %34) #31
  br label %_ZNSt6vectorIN6casadi2MXESaIS1_EED2Ev.exit

_ZNSt6vectorIN6casadi2MXESaIS1_EED2Ev.exit:       ; preds = %_ZSt8_DestroyIPN6casadi2MXES1_EvT_S3_RSaIT0_E.exit.i, %30
  call void @llvm.lifetime.end.p0(i64 24, ptr nonnull %6) #30
  call void @llvm.lifetime.end.p0(i64 8, ptr nonnull %5) #30
  %35 = add nuw nsw i64 %.017, 1
  %36 = load ptr, ptr %7, align 8, !tbaa !792
  %37 = load ptr, ptr %2, align 8, !tbaa !794
  %38 = ptrtoint ptr %36 to i64
  %39 = ptrtoint ptr %37 to i64
  %40 = sub i64 %38, %39
  %41 = ashr exact i64 %40, 2
  %42 = icmp ult i64 %35, %41
  br i1 %42, label %18, label %._crit_edge, !llvm.loop !797

43:                                               ; preds = %18
  %44 = landingpad { ptr, i32 }
          cleanup
  br label %50

45:                                               ; preds = %22
  %46 = landingpad { ptr, i32 }
          cleanup
  br label %49

47:                                               ; preds = %_ZN6casadi7vertcatERKSt6vectorINS_2MXESaIS1_EE.exit
  %48 = landingpad { ptr, i32 }
          cleanup
  call void @_ZN6casadi2MXD1Ev(ptr noundef nonnull align 8 dereferenceable(8) %5) #30
  br label %49

49:                                               ; preds = %47, %45
  %.pn = phi { ptr, i32 } [ %48, %47 ], [ %46, %45 ]
  call void @_ZNSt6vectorIN6casadi2MXESaIS1_EED2Ev(ptr noundef nonnull align 8 dereferenceable(24) %6) #30
  br label %50

50:                                               ; preds = %49, %43
  %.pn.pn = phi { ptr, i32 } [ %.pn, %49 ], [ %44, %43 ]
  call void @llvm.lifetime.end.p0(i64 24, ptr nonnull %6) #30
  call void @llvm.lifetime.end.p0(i64 8, ptr nonnull %5) #30
  call void @_ZNSt6vectorIN6casadi2MXESaIS1_EED2Ev(ptr noundef nonnull align 8 dereferenceable(24) %0) #30
  resume { ptr, i32 } %.pn.pn

._crit_edge:                                      ; preds = %_ZNSt6vectorIN6casadi2MXESaIS1_EED2Ev.exit, %3
  ret void
}